target datalayout = "e-m:e-p270:32:32-p271:32:32-p272:64:64-i64:64-i128:128-f80:128-n8:16:32:64-S128"
target triple = "x86_64-pc-linux-gnu"

@bio_err = external global ptr, align 8
@.str.202 = private unnamed_addr constant [9 x i8] c"subject=\00", align 1
@.str.252 = private unnamed_addr constant [50 x i8] c"Error with certificate - error %d at depth %d\0A%s\0A\00", align 1

; Function Attrs: nounwind uwtable
define internal i32 @callb(i32 noundef %0, ptr noundef %1) #0 {
  %3 = alloca i32, align 4
  %4 = alloca i32, align 4
  %5 = alloca ptr, align 8
  %6 = alloca i32, align 4
  %7 = alloca ptr, align 8
  %8 = alloca i32, align 4
  store i32 %0, ptr %4, align 4, !tbaa !4
  store ptr %1, ptr %5, align 8, !tbaa !55
  call void @llvm.lifetime.start.p0(i64 4, ptr %6) #8
  call void @llvm.lifetime.start.p0(i64 8, ptr %7) #8
  %9 = load ptr, ptr %5, align 8, !tbaa !55
  %10 = call i32 @X509_STORE_CTX_get_error(ptr noundef %9)
  store i32 %10, ptr %6, align 4, !tbaa !4
  %11 = load i32, ptr %6, align 4, !tbaa !4
  %12 = icmp eq i32 %11, 18
  br i1 %12, label %13, label %14

13:                                               ; preds = %2
  store i32 1, ptr %3, align 4
  store i32 1, ptr %8, align 4
  br label %32

14:                                               ; preds = %2
  %15 = load i32, ptr %4, align 4, !tbaa !4
  %16 = icmp ne i32 %15, 0
  br i1 %16, label %31, label %17

17:                                               ; preds = %14
  %18 = load ptr, ptr %5, align 8, !tbaa !55
  %19 = call ptr @X509_STORE_CTX_get_current_cert(ptr noundef %18)
  store ptr %19, ptr %7, align 8, !tbaa !31
  %20 = load ptr, ptr @bio_err, align 8, !tbaa !15
  %21 = load ptr, ptr %7, align 8, !tbaa !31
  %22 = call ptr @X509_get_subject_name(ptr noundef %21)
  call void @print_name(ptr noundef %20, ptr noundef @.str.202, ptr noundef %22)
  %23 = load ptr, ptr @bio_err, align 8, !tbaa !15
  %24 = load i32, ptr %6, align 4, !tbaa !4
  %25 = load ptr, ptr %5, align 8, !tbaa !55
  %26 = call i32 @X509_STORE_CTX_get_error_depth(ptr noundef %25)
  %27 = load i32, ptr %6, align 4, !tbaa !4
  %28 = sext i32 %27 to i64
  %29 = call ptr @X509_verify_cert_error_string(i64 noundef %28)
  %30 = call i32 (ptr, ptr, ...) @BIO_printf(ptr noundef %23, ptr noundef @.str.252, i32 noundef %24, i32 noundef %26, ptr noundef %29)
  store i32 1, ptr %3, align 4
  store i32 1, ptr %8, align 4
  br label %32

31:                                               ; preds = %14
  store i32 1, ptr %3, align 4
  store i32 1, ptr %8, align 4
  br label %32

32:                                               ; preds = %31, %17, %13
  call void @llvm.lifetime.end.p0(i64 8, ptr %7) #8
  call void @llvm.lifetime.end.p0(i64 4, ptr %6) #8
  %33 = load i32, ptr %3, align 4
  ret i32 %33
}