; Function Attrs: nounwind uwtable
define internal noundef i32 @callb(i32 noundef %0, ptr noundef %1) #0 {
  %3 = tail call i32 @X509_STORE_CTX_get_error(ptr noundef %1) #8
  %4 = icmp ne i32 %3, 18
  %.not = icmp eq i32 %0, 0
  %or.cond = and i1 %.not, %4
  br i1 %or.cond, label %5, label %14

5:                                                ; preds = %2
  %6 = tail call ptr @X509_STORE_CTX_get_current_cert(ptr noundef %1) #8
  %7 = load ptr, ptr @bio_err, align 8, !tbaa !13
  %8 = tail call ptr @X509_get_subject_name(ptr noundef %6) #8
  tail call void @print_name(ptr noundef %7, ptr noundef nonnull @.str.202, ptr noundef %8) #8
  %9 = load ptr, ptr @bio_err, align 8, !tbaa !13
  %10 = tail call i32 @X509_STORE_CTX_get_error_depth(ptr noundef %1) #8
  %11 = sext i32 %3 to i64
  %12 = tail call ptr @X509_verify_cert_error_string(i64 noundef %11) #8
  %13 = tail call i32 (ptr, ptr, ...) @BIO_printf(ptr noundef %9, ptr noundef nonnull @.str.252, i32 noundef %3, i32 noundef %10, ptr noundef %12) #8
  br label %14

14:                                               ; preds = %2, %5
  ret i32 1
}